opt subtitle "HI-TECH Software Omniscient Code Generator (Lite mode) build 6738"

opt pagewidth 120

	opt lm

	processor	16F877A
clrc	macro
	bcf	3,0
	endm
clrz	macro
	bcf	3,2
	endm
setc	macro
	bsf	3,0
	endm
setz	macro
	bsf	3,2
	endm
skipc	macro
	btfss	3,0
	endm
skipz	macro
	btfss	3,2
	endm
skipnc	macro
	btfsc	3,0
	endm
skipnz	macro
	btfsc	3,2
	endm
indf	equ	0
indf0	equ	0
pc	equ	2
pcl	equ	2
status	equ	3
fsr	equ	4
fsr0	equ	4
c	equ	1
z	equ	0
pclath	equ	10
	FNCALL	_main,_delay
	FNROOT	_main
	global	_PORTD
psect	maintext,global,class=CODE,delta=2
global __pmaintext
__pmaintext:
_PORTD	set	8
	global	_SSPBUF
_SSPBUF	set	19
	global	_SSPCON
_SSPCON	set	20
	global	_RB0
_RB0	set	48
	global	_RD0
_RD0	set	64
	global	_SSPIF
_SSPIF	set	99
	global	_SSPSTAT
_SSPSTAT	set	148
	global	_TRISB
_TRISB	set	134
	global	_TRISC
_TRISC	set	135
	global	_TRISD
_TRISD	set	136
	file	"program.as"
	line	#
psect cinit,class=CODE,delta=2
global start_initialization
start_initialization:

psect cinit,class=CODE,delta=2
global end_of_initialization

;End of C runtime variable initialization code

end_of_initialization:
clrf status
ljmp _main	;jump to C main() function
psect	cstackCOMMON,class=COMMON,space=1
global __pcstackCOMMON
__pcstackCOMMON:
	global	?_delay
?_delay:	; 0 bytes @ 0x0
	global	??_delay
??_delay:	; 0 bytes @ 0x0
	global	?_main
?_main:	; 0 bytes @ 0x0
	global	delay@i
delay@i:	; 2 bytes @ 0x0
	ds	2
	global	??_main
??_main:	; 0 bytes @ 0x2
;;Data sizes: Strings 0, constant 0, data 0, bss 0, persistent 0 stack 0
;;Auto spaces:   Size  Autos    Used
;; COMMON          14      2       2
;; BANK0           80      0       0
;; BANK1           80      0       0
;; BANK3           96      0       0
;; BANK2           96      0       0

;;
;; Pointer list with targets:



;;
;; Critical Paths under _main in COMMON
;;
;;   _main->_delay
;;
;; Critical Paths under _main in BANK0
;;
;;   None.
;;
;; Critical Paths under _main in BANK1
;;
;;   None.
;;
;; Critical Paths under _main in BANK3
;;
;;   None.
;;
;; Critical Paths under _main in BANK2
;;
;;   None.

;;
;;Main: autosize = 0, tempsize = 0, incstack = 0, save=0
;;

;;
;;Call Graph Tables:
;;
;; ---------------------------------------------------------------------------------
;; (Depth) Function   	        Calls       Base Space   Used Autos Params    Refs
;; ---------------------------------------------------------------------------------
;; (0) _main                                                 0     0      0      30
;;                              _delay
;; ---------------------------------------------------------------------------------
;; (1) _delay                                                2     2      0      30
;;                                              0 COMMON     2     2      0
;; ---------------------------------------------------------------------------------
;; Estimated maximum stack depth 1
;; ---------------------------------------------------------------------------------

;; Call Graph Graphs:

;; _main (ROOT)
;;   _delay
;;

;; Address spaces:

;;Name               Size   Autos  Total    Cost      Usage
;;BITCOMMON            E      0       0       0        0.0%
;;EEDATA             100      0       0       0        0.0%
;;NULL                 0      0       0       0        0.0%
;;CODE                 0      0       0       0        0.0%
;;COMMON               E      2       2       1       14.3%
;;BITSFR0              0      0       0       1        0.0%
;;SFR0                 0      0       0       1        0.0%
;;BITSFR1              0      0       0       2        0.0%
;;SFR1                 0      0       0       2        0.0%
;;STACK                0      0       1       2        0.0%
;;ABS                  0      0       0       3        0.0%
;;BITBANK0            50      0       0       4        0.0%
;;BITSFR3              0      0       0       4        0.0%
;;SFR3                 0      0       0       4        0.0%
;;BANK0               50      0       0       5        0.0%
;;BITSFR2              0      0       0       5        0.0%
;;SFR2                 0      0       0       5        0.0%
;;BITBANK1            50      0       0       6        0.0%
;;BANK1               50      0       0       7        0.0%
;;BITBANK3            60      0       0       8        0.0%
;;BANK3               60      0       0       9        0.0%
;;BITBANK2            60      0       0      10        0.0%
;;BANK2               60      0       0      11        0.0%
;;DATA                 0      0       0      12        0.0%

	global	_main
psect	maintext

;; *************** function _main *****************
;; Defined at:
;;		line 4 in file "E:\sai em pic\spi terminal\program.c"
;; Parameters:    Size  Location     Type
;;		None
;; Auto vars:     Size  Location     Type
;;		None
;; Return value:  Size  Location     Type
;;		None               void
;; Registers used:
;;		wreg, status,2, status,0, btemp+1, pclath, cstack
;; Tracked objects:
;;		On entry : 17F/0
;;		On exit  : 0/0
;;		Unchanged: 0/0
;; Data sizes:     COMMON   BANK0   BANK1   BANK3   BANK2
;;      Params:         0       0       0       0       0
;;      Locals:         0       0       0       0       0
;;      Temps:          0       0       0       0       0
;;      Totals:         0       0       0       0       0
;;Total ram usage:        0 bytes
;; Hardware stack levels required when called:    1
;; This function calls:
;;		_delay
;; This function is called by:
;;		Startup code after reset
;; This function uses a non-reentrant model
;;
psect	maintext
	file	"E:\sai em pic\spi terminal\program.c"
	line	4
	global	__size_of_main
	__size_of_main	equ	__end_of_main-_main
	
_main:	
	opt	stack 7
; Regs used in _main: [wreg+status,2+status,0+btemp+1+pclath+cstack]
	line	5
	
l1735:	
;program.c: 5: TRISB=0;
	bsf	status, 5	;RP0=1, select bank1
	bcf	status, 6	;RP1=0, select bank1
	clrf	(134)^080h	;volatile
	line	6
	
l1737:	
;program.c: 6: TRISD=1;
	movlw	(01h)
	movwf	(136)^080h	;volatile
	line	7
	
l1739:	
;program.c: 7: TRISC=0X01;
	movlw	(01h)
	movwf	(135)^080h	;volatile
	line	8
	
l1741:	
;program.c: 8: SSPCON=0X20;
	movlw	(020h)
	bcf	status, 5	;RP0=0, select bank0
	bcf	status, 6	;RP1=0, select bank0
	movwf	(20)	;volatile
	line	9
	
l1743:	
;program.c: 9: SSPSTAT=0X00;
	bsf	status, 5	;RP0=1, select bank1
	bcf	status, 6	;RP1=0, select bank1
	clrf	(148)^080h	;volatile
	line	11
;program.c: 11: PORTD=0XFF;
	movlw	(0FFh)
	bcf	status, 5	;RP0=0, select bank0
	bcf	status, 6	;RP1=0, select bank0
	movwf	(8)	;volatile
	line	12
	
l1745:	
;program.c: 12: if(RD0==0);
	
l561:	
	line	14
;program.c: 13: {
;program.c: 14: RB0=0;
	bcf	(48/8),(48)&7
	line	15
	
l1747:	
;program.c: 15: SSPBUF='A';
	movlw	(041h)
	movwf	(19)	;volatile
	line	16
;program.c: 16: while(SSPIF==0);
	goto	l562
	
l563:	
	
l562:	
	btfss	(99/8),(99)&7
	goto	u2161
	goto	u2160
u2161:
	goto	l562
u2160:
	
l564:	
	line	17
;program.c: 17: SSPIF=0;
	bcf	(99/8),(99)&7
	line	18
;program.c: 18: RB0=1;
	bsf	(48/8),(48)&7
	line	19
	
l1749:	
;program.c: 19: delay();
	fcall	_delay
	line	23
	
l565:	
	global	start
	ljmp	start
	opt stack 0
GLOBAL	__end_of_main
	__end_of_main:
;; =============== function _main ends ============

	signat	_main,88
	global	_delay
psect	text55,local,class=CODE,delta=2
global __ptext55
__ptext55:

;; *************** function _delay *****************
;; Defined at:
;;		line 25 in file "E:\sai em pic\spi terminal\program.c"
;; Parameters:    Size  Location     Type
;;		None
;; Auto vars:     Size  Location     Type
;;  i               2    0[COMMON] int 
;; Return value:  Size  Location     Type
;;		None               void
;; Registers used:
;;		wreg, btemp+1
;; Tracked objects:
;;		On entry : 0/0
;;		On exit  : 0/0
;;		Unchanged: 0/0
;; Data sizes:     COMMON   BANK0   BANK1   BANK3   BANK2
;;      Params:         0       0       0       0       0
;;      Locals:         2       0       0       0       0
;;      Temps:          0       0       0       0       0
;;      Totals:         2       0       0       0       0
;;Total ram usage:        2 bytes
;; Hardware stack levels used:    1
;; This function calls:
;;		Nothing
;; This function is called by:
;;		_main
;; This function uses a non-reentrant model
;;
psect	text55
	file	"E:\sai em pic\spi terminal\program.c"
	line	25
	global	__size_of_delay
	__size_of_delay	equ	__end_of_delay-_delay
	
_delay:	
	opt	stack 7
; Regs used in _delay: [wreg+btemp+1]
	line	26
	
l939:	
;program.c: 26: for (int i=0;i<=8000;i++);
	movlw	low(0)
	movwf	(delay@i)
	movlw	high(0)
	movwf	((delay@i))+1
	
l941:	
	movf	(delay@i+1),w
	xorlw	80h
	movwf	btemp+1
	movlw	(high(01F41h))^80h
	subwf	btemp+1,w
	skipz
	goto	u15
	movlw	low(01F41h)
	subwf	(delay@i),w
u15:

	skipc
	goto	u11
	goto	u10
u11:
	goto	l945
u10:
	goto	l570
	
l943:	
	goto	l570
	
l568:	
	
l945:	
	movlw	low(01h)
	addwf	(delay@i),f
	skipnc
	incf	(delay@i+1),f
	movlw	high(01h)
	addwf	(delay@i+1),f
	
l947:	
	movf	(delay@i+1),w
	xorlw	80h
	movwf	btemp+1
	movlw	(high(01F41h))^80h
	subwf	btemp+1,w
	skipz
	goto	u25
	movlw	low(01F41h)
	subwf	(delay@i),w
u25:

	skipc
	goto	u21
	goto	u20
u21:
	goto	l945
u20:
	goto	l570
	
l569:	
	line	27
	
l570:	
	return
	opt stack 0
GLOBAL	__end_of_delay
	__end_of_delay:
;; =============== function _delay ends ============

	signat	_delay,88
psect	text56,local,class=CODE,delta=2
global __ptext56
__ptext56:
	global	btemp
	btemp set 07Eh

	DABS	1,126,2	;btemp
	global	wtemp0
	wtemp0 set btemp
	end
