opt subtitle "HI-TECH Software Omniscient Code Generator (Lite mode) build 6738"

opt pagewidth 120

	opt lm

	processor	16F877A
clrc	macro
	bcf	3,0
	endm
clrz	macro
	bcf	3,2
	endm
setc	macro
	bsf	3,0
	endm
setz	macro
	bsf	3,2
	endm
skipc	macro
	btfss	3,0
	endm
skipz	macro
	btfss	3,2
	endm
skipnc	macro
	btfsc	3,0
	endm
skipnz	macro
	btfsc	3,2
	endm
indf	equ	0
indf0	equ	0
pc	equ	2
pcl	equ	2
status	equ	3
fsr	equ	4
fsr0	equ	4
c	equ	1
z	equ	0
pclath	equ	10
	FNCALL	_main,___awmod
	FNCALL	_main,_delay
	FNCALL	_main,___awdiv
	FNROOT	_main
	global	main@F513
psect	idataBANK0,class=CODE,space=0,delta=2
global __pidataBANK0
__pidataBANK0:
	file	"E:\sai em pic\pic traffic light1\traffic light test1.c"
	line	7

;initializer for main@F513
	retlw	03Fh
	retlw	06h
	retlw	05Bh
	retlw	04Fh
	retlw	066h
	retlw	06Dh
	retlw	07Dh
	retlw	07h
	retlw	07Fh
	retlw	06Fh
	global	_PORTB
_PORTB	set	6
	global	_RD0
_RD0	set	64
	global	_RD1
_RD1	set	65
	global	_TRISB
_TRISB	set	134
	global	_TRISD
_TRISD	set	136
	file	"pic traffic seg test1.as"
	line	#
psect cinit,class=CODE,delta=2
global start_initialization
start_initialization:

psect	dataBANK0,class=BANK0,space=1
global __pdataBANK0
__pdataBANK0:
	file	"E:\sai em pic\pic traffic light1\traffic light test1.c"
main@F513:
       ds      10

global btemp
psect inittext,class=CODE,delta=2
global init_fetch,btemp
;	Called with low address in FSR and high address in W
init_fetch:
	movf btemp,w
	movwf pclath
	movf btemp+1,w
	movwf pc
global init_ram
;Called with:
;	high address of idata address in btemp 
;	low address of idata address in btemp+1 
;	low address of data in FSR
;	high address + 1 of data in btemp-1
init_ram:
	fcall init_fetch
	movwf indf,f
	incf fsr,f
	movf fsr,w
	xorwf btemp-1,w
	btfsc status,2
	retlw 0
	incf btemp+1,f
	btfsc status,2
	incf btemp,f
	goto init_ram
; Initialize objects allocated to BANK0
psect cinit,class=CODE,delta=2
global init_ram, __pidataBANK0
	bcf	status, 7	;select IRP bank0
	movlw low(__pdataBANK0+10)
	movwf btemp-1,f
	movlw high(__pidataBANK0)
	movwf btemp,f
	movlw low(__pidataBANK0)
	movwf btemp+1,f
	movlw low(__pdataBANK0)
	movwf fsr,f
	fcall init_ram
psect cinit,class=CODE,delta=2
global end_of_initialization

;End of C runtime variable initialization code

end_of_initialization:
clrf status
ljmp _main	;jump to C main() function
psect	cstackCOMMON,class=COMMON,space=1
global __pcstackCOMMON
__pcstackCOMMON:
	global	?_delay
?_delay:	; 0 bytes @ 0x0
	global	??_delay
??_delay:	; 0 bytes @ 0x0
	global	?_main
?_main:	; 0 bytes @ 0x0
	global	?___awdiv
?___awdiv:	; 2 bytes @ 0x0
	global	?___awmod
?___awmod:	; 2 bytes @ 0x0
	global	delay@k
delay@k:	; 2 bytes @ 0x0
	global	___awdiv@divisor
___awdiv@divisor:	; 2 bytes @ 0x0
	global	___awmod@divisor
___awmod@divisor:	; 2 bytes @ 0x0
	ds	2
	global	___awdiv@dividend
___awdiv@dividend:	; 2 bytes @ 0x2
	global	___awmod@dividend
___awmod@dividend:	; 2 bytes @ 0x2
	ds	2
	global	??___awdiv
??___awdiv:	; 0 bytes @ 0x4
	global	??___awmod
??___awmod:	; 0 bytes @ 0x4
	ds	1
	global	___awdiv@counter
___awdiv@counter:	; 1 bytes @ 0x5
	global	___awmod@counter
___awmod@counter:	; 1 bytes @ 0x5
	ds	1
	global	___awdiv@sign
___awdiv@sign:	; 1 bytes @ 0x6
	global	___awmod@sign
___awmod@sign:	; 1 bytes @ 0x6
	ds	1
	global	___awdiv@quotient
___awdiv@quotient:	; 2 bytes @ 0x7
	ds	2
	global	??_main
??_main:	; 0 bytes @ 0x9
	ds	4
psect	cstackBANK0,class=BANK0,space=1
global __pcstackBANK0
__pcstackBANK0:
	global	main@segcmd
main@segcmd:	; 10 bytes @ 0x0
	ds	10
	global	main@i
main@i:	; 2 bytes @ 0xA
	ds	2
	global	main@j
main@j:	; 2 bytes @ 0xC
	ds	2
;;Data sizes: Strings 0, constant 0, data 10, bss 0, persistent 0 stack 0
;;Auto spaces:   Size  Autos    Used
;; COMMON          14     13      13
;; BANK0           80     14      24
;; BANK1           80      0       0
;; BANK3           96      0       0
;; BANK2           96      0       0

;;
;; Pointer list with targets:

;; ?___awdiv	int  size(1) Largest target is 0
;;
;; ?___awmod	int  size(1) Largest target is 0
;;


;;
;; Critical Paths under _main in COMMON
;;
;;   _main->___awdiv
;;
;; Critical Paths under _main in BANK0
;;
;;   None.
;;
;; Critical Paths under _main in BANK1
;;
;;   None.
;;
;; Critical Paths under _main in BANK3
;;
;;   None.
;;
;; Critical Paths under _main in BANK2
;;
;;   None.

;;
;;Main: autosize = 0, tempsize = 4, incstack = 0, save=0
;;

;;
;;Call Graph Tables:
;;
;; ---------------------------------------------------------------------------------
;; (Depth) Function   	        Calls       Base Space   Used Autos Params    Refs
;; ---------------------------------------------------------------------------------
;; (0) _main                                                22    22      0     825
;;                                              9 COMMON     4     4      0
;;                                              0 BANK0     14    14      0
;;                            ___awmod
;;                              _delay
;;                            ___awdiv
;; ---------------------------------------------------------------------------------
;; (1) ___awmod                                              7     3      4     296
;;                                              0 COMMON     7     3      4
;; ---------------------------------------------------------------------------------
;; (1) ___awdiv                                              9     5      4     300
;;                                              0 COMMON     9     5      4
;; ---------------------------------------------------------------------------------
;; (1) _delay                                                2     2      0      46
;;                                              0 COMMON     2     2      0
;; ---------------------------------------------------------------------------------
;; Estimated maximum stack depth 1
;; ---------------------------------------------------------------------------------

;; Call Graph Graphs:

;; _main (ROOT)
;;   ___awmod
;;   _delay
;;   ___awdiv
;;

;; Address spaces:

;;Name               Size   Autos  Total    Cost      Usage
;;BANK3               60      0       0       9        0.0%
;;BITBANK3            60      0       0       8        0.0%
;;SFR3                 0      0       0       4        0.0%
;;BITSFR3              0      0       0       4        0.0%
;;BANK2               60      0       0      11        0.0%
;;BITBANK2            60      0       0      10        0.0%
;;SFR2                 0      0       0       5        0.0%
;;BITSFR2              0      0       0       5        0.0%
;;SFR1                 0      0       0       2        0.0%
;;BITSFR1              0      0       0       2        0.0%
;;BANK1               50      0       0       7        0.0%
;;BITBANK1            50      0       0       6        0.0%
;;CODE                 0      0       0       0        0.0%
;;DATA                 0      0      26      12        0.0%
;;ABS                  0      0      25       3        0.0%
;;NULL                 0      0       0       0        0.0%
;;STACK                0      0       1       2        0.0%
;;BANK0               50      E      18       5       30.0%
;;BITBANK0            50      0       0       4        0.0%
;;SFR0                 0      0       0       1        0.0%
;;BITSFR0              0      0       0       1        0.0%
;;COMMON               E      D       D       1       92.9%
;;BITCOMMON            E      0       0       0        0.0%
;;EEDATA             100      0       0       0        0.0%

	global	_main
psect	maintext,global,class=CODE,delta=2
global __pmaintext
__pmaintext:

;; *************** function _main *****************
;; Defined at:
;;		line 4 in file "E:\sai em pic\pic traffic light1\traffic light test1.c"
;; Parameters:    Size  Location     Type
;;		None
;; Auto vars:     Size  Location     Type
;;  segcmd         10    0[BANK0 ] unsigned char [10]
;;  j               2   12[BANK0 ] int 
;;  i               2   10[BANK0 ] int 
;;  b               2    0        int 
;;  a               2    0        int 
;; Return value:  Size  Location     Type
;;		None               void
;; Registers used:
;;		wreg, fsr0l, fsr0h, status,2, status,0, btemp+1, pclath, cstack
;; Tracked objects:
;;		On entry : 17F/0
;;		On exit  : 0/0
;;		Unchanged: 0/0
;; Data sizes:     COMMON   BANK0   BANK1   BANK3   BANK2
;;      Params:         0       0       0       0       0
;;      Locals:         0      14       0       0       0
;;      Temps:          4       0       0       0       0
;;      Totals:         4      14       0       0       0
;;Total ram usage:       18 bytes
;; Hardware stack levels required when called:    1
;; This function calls:
;;		___awmod
;;		_delay
;;		___awdiv
;; This function is called by:
;;		Startup code after reset
;; This function uses a non-reentrant model
;;
psect	maintext
	file	"E:\sai em pic\pic traffic light1\traffic light test1.c"
	line	4
	global	__size_of_main
	__size_of_main	equ	__end_of_main-_main
	
_main:	
	opt	stack 7
; Regs used in _main: [wreg-fsr0h+status,2+status,0+btemp+1+pclath+cstack]
	line	5
	
l1886:	
;traffic light test1.c: 5: TRISB=0;
	bsf	status, 5	;RP0=1, select bank1
	bcf	status, 6	;RP1=0, select bank1
	clrf	(134)^080h	;volatile
	line	6
;traffic light test1.c: 6: TRISD=0;
	clrf	(136)^080h	;volatile
	line	7
	
l1888:	
;traffic light test1.c: 7: char segcmd[10]={0X3F,0X06,0X5B,0X4F,0X66,0X6D,0X7D,0X07,0X7F,0X6F};
	movlw	(main@segcmd)&0ffh
	movwf	fsr0
	movlw	low(main@F513)
	movwf	(??_main+0)+0
	movf	fsr0,w
	movwf	((??_main+0)+0+1)
	movlw	10
	movwf	((??_main+0)+0+2)
u2400:
	movf	(??_main+0)+0,w
	movwf	fsr0
	bcf	status, 7	;select IRP bank0
	
	movf	indf,w
	movwf	((??_main+0)+0+3)
	incf	(??_main+0)+0,f
	movf	((??_main+0)+0+1),w
	movwf	fsr0
	
	movf	((??_main+0)+0+3),w
	movwf	indf
	incf	((??_main+0)+0+1),f
	decfsz	((??_main+0)+0+2),f
	goto	u2400
	goto	l1890
	line	9
;traffic light test1.c: 8: int i,j,a,b;
;traffic light test1.c: 9: while (1)
	
l563:	
	line	12
	
l1890:	
;traffic light test1.c: 10: {
;traffic light test1.c: 12: for (j=0;j<=99;j++)
	movlw	low(0)
	bcf	status, 5	;RP0=0, select bank0
	bcf	status, 6	;RP1=0, select bank0
	movwf	(main@j)
	movlw	high(0)
	movwf	((main@j))+1
	
l1892:	
	movf	(main@j+1),w
	xorlw	80h
	movwf	btemp+1
	movlw	(high(064h))^80h
	subwf	btemp+1,w
	skipz
	goto	u2415
	movlw	low(064h)
	subwf	(main@j),w
u2415:

	skipc
	goto	u2411
	goto	u2410
u2411:
	goto	l1896
u2410:
	goto	l1890
	
l1894:	
	goto	l1890
	line	13
	
l564:	
	line	14
	
l1896:	
;traffic light test1.c: 13: {
;traffic light test1.c: 14: i=j%10;
	movlw	low(0Ah)
	movwf	(?___awmod)
	movlw	high(0Ah)
	movwf	((?___awmod))+1
	bcf	status, 5	;RP0=0, select bank0
	bcf	status, 6	;RP1=0, select bank0
	movf	(main@j+1),w
	clrf	1+(?___awmod)+02h
	addwf	1+(?___awmod)+02h
	movf	(main@j),w
	clrf	0+(?___awmod)+02h
	addwf	0+(?___awmod)+02h

	fcall	___awmod
	movf	(1+(?___awmod)),w
	bcf	status, 5	;RP0=0, select bank0
	bcf	status, 6	;RP1=0, select bank0
	clrf	(main@i+1)
	addwf	(main@i+1)
	movf	(0+(?___awmod)),w
	clrf	(main@i)
	addwf	(main@i)

	line	15
	
l1898:	
;traffic light test1.c: 15: RD0=1;
	bsf	(64/8),(64)&7
	line	16
	
l1900:	
;traffic light test1.c: 16: RD1=0;
	bcf	(65/8),(65)&7
	line	17
	
l1902:	
;traffic light test1.c: 17: PORTB=segcmd[i];
	movf	(main@i),w
	addlw	main@segcmd&0ffh
	movwf	fsr0
	bcf	status, 7	;select IRP bank0
	movf	indf,w
	movwf	(6)	;volatile
	line	18
	
l1904:	
;traffic light test1.c: 18: delay();
	fcall	_delay
	line	19
	
l1906:	
;traffic light test1.c: 19: i=j/10;
	movlw	low(0Ah)
	movwf	(?___awdiv)
	movlw	high(0Ah)
	movwf	((?___awdiv))+1
	bcf	status, 5	;RP0=0, select bank0
	bcf	status, 6	;RP1=0, select bank0
	movf	(main@j+1),w
	clrf	1+(?___awdiv)+02h
	addwf	1+(?___awdiv)+02h
	movf	(main@j),w
	clrf	0+(?___awdiv)+02h
	addwf	0+(?___awdiv)+02h

	fcall	___awdiv
	movf	(1+(?___awdiv)),w
	bcf	status, 5	;RP0=0, select bank0
	bcf	status, 6	;RP1=0, select bank0
	clrf	(main@i+1)
	addwf	(main@i+1)
	movf	(0+(?___awdiv)),w
	clrf	(main@i)
	addwf	(main@i)

	line	20
	
l1908:	
;traffic light test1.c: 20: RD0=0;
	bcf	(64/8),(64)&7
	line	21
	
l1910:	
;traffic light test1.c: 21: RD1=1;
	bsf	(65/8),(65)&7
	line	22
	
l1912:	
;traffic light test1.c: 22: PORTB =segcmd[i];
	movf	(main@i),w
	addlw	main@segcmd&0ffh
	movwf	fsr0
	bcf	status, 7	;select IRP bank0
	movf	indf,w
	movwf	(6)	;volatile
	line	23
;traffic light test1.c: 23: delay();
	fcall	_delay
	line	12
	
l1914:	
	movlw	low(01h)
	bcf	status, 5	;RP0=0, select bank0
	bcf	status, 6	;RP1=0, select bank0
	addwf	(main@j),f
	skipnc
	incf	(main@j+1),f
	movlw	high(01h)
	addwf	(main@j+1),f
	
l1916:	
	movf	(main@j+1),w
	xorlw	80h
	movwf	btemp+1
	movlw	(high(064h))^80h
	subwf	btemp+1,w
	skipz
	goto	u2425
	movlw	low(064h)
	subwf	(main@j),w
u2425:

	skipc
	goto	u2421
	goto	u2420
u2421:
	goto	l1896
u2420:
	goto	l1890
	
l565:	
	goto	l1890
	line	25
	
l566:	
	line	9
	goto	l1890
	
l567:	
	line	26
	
l568:	
	global	start
	ljmp	start
	opt stack 0
GLOBAL	__end_of_main
	__end_of_main:
;; =============== function _main ends ============

	signat	_main,88
	global	___awmod
psect	text95,local,class=CODE,delta=2
global __ptext95
__ptext95:

;; *************** function ___awmod *****************
;; Defined at:
;;		line 5 in file "C:\Program Files (x86)\HI-TECH Software\PICC\9.80\sources\awmod.c"
;; Parameters:    Size  Location     Type
;;  divisor         2    0[COMMON] int 
;;  dividend        2    2[COMMON] int 
;; Auto vars:     Size  Location     Type
;;  sign            1    6[COMMON] unsigned char 
;;  counter         1    5[COMMON] unsigned char 
;; Return value:  Size  Location     Type
;;                  2    0[COMMON] int 
;; Registers used:
;;		wreg, status,2, status,0
;; Tracked objects:
;;		On entry : 0/0
;;		On exit  : 0/0
;;		Unchanged: 0/0
;; Data sizes:     COMMON   BANK0   BANK1   BANK3   BANK2
;;      Params:         4       0       0       0       0
;;      Locals:         2       0       0       0       0
;;      Temps:          1       0       0       0       0
;;      Totals:         7       0       0       0       0
;;Total ram usage:        7 bytes
;; Hardware stack levels used:    1
;; This function calls:
;;		Nothing
;; This function is called by:
;;		_main
;; This function uses a non-reentrant model
;;
psect	text95
	file	"C:\Program Files (x86)\HI-TECH Software\PICC\9.80\sources\awmod.c"
	line	5
	global	__size_of___awmod
	__size_of___awmod	equ	__end_of___awmod-___awmod
	
___awmod:	
	opt	stack 7
; Regs used in ___awmod: [wreg+status,2+status,0]
	line	8
	
l1850:	
	clrc
	movlw	0
	btfsc	status,0
	movlw	1
	movwf	(___awmod@sign)
	line	9
	
l1852:	
	btfss	(___awmod@dividend+1),7
	goto	u2311
	goto	u2310
u2311:
	goto	l1856
u2310:
	line	10
	
l1854:	
	comf	(___awmod@dividend),f
	comf	(___awmod@dividend+1),f
	incf	(___awmod@dividend),f
	skipnz
	incf	(___awmod@dividend+1),f
	line	11
	clrf	(___awmod@sign)
	bsf	status,0
	rlf	(___awmod@sign),f
	goto	l1856
	line	12
	
l790:	
	line	13
	
l1856:	
	btfss	(___awmod@divisor+1),7
	goto	u2321
	goto	u2320
u2321:
	goto	l1860
u2320:
	line	14
	
l1858:	
	comf	(___awmod@divisor),f
	comf	(___awmod@divisor+1),f
	incf	(___awmod@divisor),f
	skipnz
	incf	(___awmod@divisor+1),f
	goto	l1860
	
l791:	
	line	15
	
l1860:	
	movf	(___awmod@divisor+1),w
	iorwf	(___awmod@divisor),w
	skipnz
	goto	u2331
	goto	u2330
u2331:
	goto	l1878
u2330:
	line	16
	
l1862:	
	clrf	(___awmod@counter)
	bsf	status,0
	rlf	(___awmod@counter),f
	line	17
	goto	l1868
	
l794:	
	line	18
	
l1864:	
	movlw	01h
	
u2345:
	clrc
	rlf	(___awmod@divisor),f
	rlf	(___awmod@divisor+1),f
	addlw	-1
	skipz
	goto	u2345
	line	19
	
l1866:	
	movlw	(01h)
	movwf	(??___awmod+0)+0
	movf	(??___awmod+0)+0,w
	addwf	(___awmod@counter),f
	goto	l1868
	line	20
	
l793:	
	line	17
	
l1868:	
	btfss	(___awmod@divisor+1),(15)&7
	goto	u2351
	goto	u2350
u2351:
	goto	l1864
u2350:
	goto	l1870
	
l795:	
	goto	l1870
	line	21
	
l796:	
	line	22
	
l1870:	
	movf	(___awmod@divisor+1),w
	subwf	(___awmod@dividend+1),w
	skipz
	goto	u2365
	movf	(___awmod@divisor),w
	subwf	(___awmod@dividend),w
u2365:
	skipc
	goto	u2361
	goto	u2360
u2361:
	goto	l1874
u2360:
	line	23
	
l1872:	
	movf	(___awmod@divisor),w
	subwf	(___awmod@dividend),f
	movf	(___awmod@divisor+1),w
	skipc
	decf	(___awmod@dividend+1),f
	subwf	(___awmod@dividend+1),f
	goto	l1874
	
l797:	
	line	24
	
l1874:	
	movlw	01h
	
u2375:
	clrc
	rrf	(___awmod@divisor+1),f
	rrf	(___awmod@divisor),f
	addlw	-1
	skipz
	goto	u2375
	line	25
	
l1876:	
	movlw	low(01h)
	subwf	(___awmod@counter),f
	btfss	status,2
	goto	u2381
	goto	u2380
u2381:
	goto	l1870
u2380:
	goto	l1878
	
l798:	
	goto	l1878
	line	26
	
l792:	
	line	27
	
l1878:	
	movf	(___awmod@sign),w
	skipz
	goto	u2390
	goto	l1882
u2390:
	line	28
	
l1880:	
	comf	(___awmod@dividend),f
	comf	(___awmod@dividend+1),f
	incf	(___awmod@dividend),f
	skipnz
	incf	(___awmod@dividend+1),f
	goto	l1882
	
l799:	
	line	29
	
l1882:	
	movf	(___awmod@dividend+1),w
	clrf	(?___awmod+1)
	addwf	(?___awmod+1)
	movf	(___awmod@dividend),w
	clrf	(?___awmod)
	addwf	(?___awmod)

	goto	l800
	
l1884:	
	line	30
	
l800:	
	return
	opt stack 0
GLOBAL	__end_of___awmod
	__end_of___awmod:
;; =============== function ___awmod ends ============

	signat	___awmod,8314
	global	___awdiv
psect	text96,local,class=CODE,delta=2
global __ptext96
__ptext96:

;; *************** function ___awdiv *****************
;; Defined at:
;;		line 5 in file "C:\Program Files (x86)\HI-TECH Software\PICC\9.80\sources\awdiv.c"
;; Parameters:    Size  Location     Type
;;  divisor         2    0[COMMON] int 
;;  dividend        2    2[COMMON] int 
;; Auto vars:     Size  Location     Type
;;  quotient        2    7[COMMON] int 
;;  sign            1    6[COMMON] unsigned char 
;;  counter         1    5[COMMON] unsigned char 
;; Return value:  Size  Location     Type
;;                  2    0[COMMON] int 
;; Registers used:
;;		wreg, status,2, status,0
;; Tracked objects:
;;		On entry : 0/0
;;		On exit  : 0/0
;;		Unchanged: 0/0
;; Data sizes:     COMMON   BANK0   BANK1   BANK3   BANK2
;;      Params:         4       0       0       0       0
;;      Locals:         4       0       0       0       0
;;      Temps:          1       0       0       0       0
;;      Totals:         9       0       0       0       0
;;Total ram usage:        9 bytes
;; Hardware stack levels used:    1
;; This function calls:
;;		Nothing
;; This function is called by:
;;		_main
;; This function uses a non-reentrant model
;;
psect	text96
	file	"C:\Program Files (x86)\HI-TECH Software\PICC\9.80\sources\awdiv.c"
	line	5
	global	__size_of___awdiv
	__size_of___awdiv	equ	__end_of___awdiv-___awdiv
	
___awdiv:	
	opt	stack 7
; Regs used in ___awdiv: [wreg+status,2+status,0]
	line	9
	
l1812:	
	clrc
	movlw	0
	btfsc	status,0
	movlw	1
	movwf	(___awdiv@sign)
	line	10
	
l1814:	
	btfss	(___awdiv@divisor+1),7
	goto	u2211
	goto	u2210
u2211:
	goto	l1818
u2210:
	line	11
	
l1816:	
	comf	(___awdiv@divisor),f
	comf	(___awdiv@divisor+1),f
	incf	(___awdiv@divisor),f
	skipnz
	incf	(___awdiv@divisor+1),f
	line	12
	clrf	(___awdiv@sign)
	bsf	status,0
	rlf	(___awdiv@sign),f
	goto	l1818
	line	13
	
l722:	
	line	14
	
l1818:	
	btfss	(___awdiv@dividend+1),7
	goto	u2221
	goto	u2220
u2221:
	goto	l723
u2220:
	line	15
	
l1820:	
	comf	(___awdiv@dividend),f
	comf	(___awdiv@dividend+1),f
	incf	(___awdiv@dividend),f
	skipnz
	incf	(___awdiv@dividend+1),f
	line	16
	
l1822:	
	movlw	(01h)
	movwf	(??___awdiv+0)+0
	movf	(??___awdiv+0)+0,w
	xorwf	(___awdiv@sign),f
	line	17
	
l723:	
	line	18
	movlw	low(0)
	movwf	(___awdiv@quotient)
	movlw	high(0)
	movwf	((___awdiv@quotient))+1
	line	19
	movf	(___awdiv@divisor+1),w
	iorwf	(___awdiv@divisor),w
	skipnz
	goto	u2231
	goto	u2230
u2231:
	goto	l1842
u2230:
	line	20
	
l1824:	
	clrf	(___awdiv@counter)
	bsf	status,0
	rlf	(___awdiv@counter),f
	line	21
	goto	l1830
	
l726:	
	line	22
	
l1826:	
	movlw	01h
	
u2245:
	clrc
	rlf	(___awdiv@divisor),f
	rlf	(___awdiv@divisor+1),f
	addlw	-1
	skipz
	goto	u2245
	line	23
	
l1828:	
	movlw	(01h)
	movwf	(??___awdiv+0)+0
	movf	(??___awdiv+0)+0,w
	addwf	(___awdiv@counter),f
	goto	l1830
	line	24
	
l725:	
	line	21
	
l1830:	
	btfss	(___awdiv@divisor+1),(15)&7
	goto	u2251
	goto	u2250
u2251:
	goto	l1826
u2250:
	goto	l1832
	
l727:	
	goto	l1832
	line	25
	
l728:	
	line	26
	
l1832:	
	movlw	01h
	
u2265:
	clrc
	rlf	(___awdiv@quotient),f
	rlf	(___awdiv@quotient+1),f
	addlw	-1
	skipz
	goto	u2265
	line	27
	movf	(___awdiv@divisor+1),w
	subwf	(___awdiv@dividend+1),w
	skipz
	goto	u2275
	movf	(___awdiv@divisor),w
	subwf	(___awdiv@dividend),w
u2275:
	skipc
	goto	u2271
	goto	u2270
u2271:
	goto	l1838
u2270:
	line	28
	
l1834:	
	movf	(___awdiv@divisor),w
	subwf	(___awdiv@dividend),f
	movf	(___awdiv@divisor+1),w
	skipc
	decf	(___awdiv@dividend+1),f
	subwf	(___awdiv@dividend+1),f
	line	29
	
l1836:	
	bsf	(___awdiv@quotient)+(0/8),(0)&7
	goto	l1838
	line	30
	
l729:	
	line	31
	
l1838:	
	movlw	01h
	
u2285:
	clrc
	rrf	(___awdiv@divisor+1),f
	rrf	(___awdiv@divisor),f
	addlw	-1
	skipz
	goto	u2285
	line	32
	
l1840:	
	movlw	low(01h)
	subwf	(___awdiv@counter),f
	btfss	status,2
	goto	u2291
	goto	u2290
u2291:
	goto	l1832
u2290:
	goto	l1842
	
l730:	
	goto	l1842
	line	33
	
l724:	
	line	34
	
l1842:	
	movf	(___awdiv@sign),w
	skipz
	goto	u2300
	goto	l1846
u2300:
	line	35
	
l1844:	
	comf	(___awdiv@quotient),f
	comf	(___awdiv@quotient+1),f
	incf	(___awdiv@quotient),f
	skipnz
	incf	(___awdiv@quotient+1),f
	goto	l1846
	
l731:	
	line	36
	
l1846:	
	movf	(___awdiv@quotient+1),w
	clrf	(?___awdiv+1)
	addwf	(?___awdiv+1)
	movf	(___awdiv@quotient),w
	clrf	(?___awdiv)
	addwf	(?___awdiv)

	goto	l732
	
l1848:	
	line	37
	
l732:	
	return
	opt stack 0
GLOBAL	__end_of___awdiv
	__end_of___awdiv:
;; =============== function ___awdiv ends ============

	signat	___awdiv,8314
	global	_delay
psect	text97,local,class=CODE,delta=2
global __ptext97
__ptext97:

;; *************** function _delay *****************
;; Defined at:
;;		line 28 in file "E:\sai em pic\pic traffic light1\traffic light test1.c"
;; Parameters:    Size  Location     Type
;;		None
;; Auto vars:     Size  Location     Type
;;  k               2    0[COMMON] int 
;; Return value:  Size  Location     Type
;;		None               void
;; Registers used:
;;		wreg, btemp+1
;; Tracked objects:
;;		On entry : 0/0
;;		On exit  : 0/0
;;		Unchanged: 0/0
;; Data sizes:     COMMON   BANK0   BANK1   BANK3   BANK2
;;      Params:         0       0       0       0       0
;;      Locals:         2       0       0       0       0
;;      Temps:          0       0       0       0       0
;;      Totals:         2       0       0       0       0
;;Total ram usage:        2 bytes
;; Hardware stack levels used:    1
;; This function calls:
;;		Nothing
;; This function is called by:
;;		_main
;; This function uses a non-reentrant model
;;
psect	text97
	file	"E:\sai em pic\pic traffic light1\traffic light test1.c"
	line	28
	global	__size_of_delay
	__size_of_delay	equ	__end_of_delay-_delay
	
_delay:	
	opt	stack 7
; Regs used in _delay: [wreg+btemp+1]
	line	30
	
l1802:	
;traffic light test1.c: 29: int k;
;traffic light test1.c: 30: for (k=0;k<=15000;k++);
	movlw	low(0)
	movwf	(delay@k)
	movlw	high(0)
	movwf	((delay@k))+1
	
l1804:	
	movf	(delay@k+1),w
	xorlw	80h
	movwf	btemp+1
	movlw	(high(03A99h))^80h
	subwf	btemp+1,w
	skipz
	goto	u2195
	movlw	low(03A99h)
	subwf	(delay@k),w
u2195:

	skipc
	goto	u2191
	goto	u2190
u2191:
	goto	l1808
u2190:
	goto	l573
	
l1806:	
	goto	l573
	
l571:	
	
l1808:	
	movlw	low(01h)
	addwf	(delay@k),f
	skipnc
	incf	(delay@k+1),f
	movlw	high(01h)
	addwf	(delay@k+1),f
	
l1810:	
	movf	(delay@k+1),w
	xorlw	80h
	movwf	btemp+1
	movlw	(high(03A99h))^80h
	subwf	btemp+1,w
	skipz
	goto	u2205
	movlw	low(03A99h)
	subwf	(delay@k),w
u2205:

	skipc
	goto	u2201
	goto	u2200
u2201:
	goto	l1808
u2200:
	goto	l573
	
l572:	
	line	32
	
l573:	
	return
	opt stack 0
GLOBAL	__end_of_delay
	__end_of_delay:
;; =============== function _delay ends ============

	signat	_delay,88
psect	text98,local,class=CODE,delta=2
global __ptext98
__ptext98:
	global	btemp
	btemp set 07Eh

	DABS	1,126,2	;btemp
	global	wtemp0
	wtemp0 set btemp
	end
